; Function Attrs: mustprogress nofree norecurse nosync nounwind willreturn memory(argmem: readwrite) uwtable
define void @ucfpos_setState_77(ptr noundef %0, i32 noundef %1, i32 noundef %2, i32 noundef %3, i32 noundef %4, ptr noundef captures(none) %5) local_unnamed_addr #18 {
  %7 = load i32, ptr %5, align 4, !tbaa !13
  %8 = icmp slt i32 %7, 1
  br i1 %8, label %9, label %_ZN6icu_7713IcuCApiHelperI25UConstrainedFieldPositionNS_29UConstrainedFieldPositionImplELi1430472192EE8validateEPS1_R10UErrorCode.exit.thread

9:                                                ; preds = %6
  %10 = icmp eq ptr %0, null
  br i1 %10, label %.sink.split.i.i, label %11

11:                                               ; preds = %9
  %12 = load i32, ptr %0, align 4, !tbaa !23
  %.not9.i.i = icmp eq i32 %12, 1430472192
  br i1 %.not9.i.i, label %_ZN6icu_7713IcuCApiHelperI25UConstrainedFieldPositionNS_29UConstrainedFieldPositionImplELi1430472192EE8validateEPS1_R10UErrorCode.exit, label %.sink.split.i.i

.sink.split.i.i:                                  ; preds = %11, %9
  %.sink.i.i = phi i32 [ 1, %9 ], [ 3, %11 ]
  store i32 %.sink.i.i, ptr %5, align 4, !tbaa !13
  br label %_ZN6icu_7713IcuCApiHelperI25UConstrainedFieldPositionNS_29UConstrainedFieldPositionImplELi1430472192EE8validateEPS1_R10UErrorCode.exit.thread

_ZN6icu_7713IcuCApiHelperI25UConstrainedFieldPositionNS_29UConstrainedFieldPositionImplELi1430472192EE8validateEPS1_R10UErrorCode.exit: ; preds = %11
  %13 = getelementptr inbounds nuw i8, ptr %0, i64 28
  store i32 %1, ptr %13, align 4, !tbaa !18
  %14 = getelementptr inbounds nuw i8, ptr %0, i64 16
  store i32 %2, ptr %14, align 8, !tbaa !19
  %15 = getelementptr inbounds nuw i8, ptr %0, i64 20
  store i32 %3, ptr %15, align 4, !tbaa !21
  %16 = getelementptr inbounds nuw i8, ptr %0, i64 24
  store i32 %4, ptr %16, align 8, !tbaa !22
  br label %_ZN6icu_7713IcuCApiHelperI25UConstrainedFieldPositionNS_29UConstrainedFieldPositionImplELi1430472192EE8validateEPS1_R10UErrorCode.exit.thread

_ZN6icu_7713IcuCApiHelperI25UConstrainedFieldPositionNS_29UConstrainedFieldPositionImplELi1430472192EE8validateEPS1_R10UErrorCode.exit.thread: ; preds = %.sink.split.i.i, %6, %_ZN6icu_7713IcuCApiHelperI25UConstrainedFieldPositionNS_29UConstrainedFieldPositionImplELi1430472192EE8validateEPS1_R10UErrorCode.exit
  ret void
}